target datalayout = "e-m:e-p270:32:32-p271:32:32-p272:64:64-i64:64-i128:128-f80:128-n8:16:32:64-S128"
target triple = "x86_64-pc-linux-gnu"

@.str = private unnamed_addr constant [3 x i8] c"wb\00", align 1

; Function Attrs: nounwind uwtable
define hidden i32 @mbedtls_ctr_drbg_random(ptr noundef %0, ptr noundef %1, i64 noundef %2) #0 {
  %4 = alloca ptr, align 8
  %5 = alloca ptr, align 8
  %6 = alloca i64, align 8
  %7 = alloca i32, align 4
  %8 = alloca ptr, align 8
  store ptr %0, ptr %4, align 8, !tbaa !29
  store ptr %1, ptr %5, align 8, !tbaa !19
  store i64 %2, ptr %6, align 8, !tbaa !16
  call void @llvm.lifetime.start.p0(i64 4, ptr %7) #10
  store i32 -110, ptr %7, align 4, !tbaa !14
  call void @llvm.lifetime.start.p0(i64 8, ptr %8) #10
  %9 = load ptr, ptr %4, align 8, !tbaa !29
  store ptr %9, ptr %8, align 8, !tbaa !3
  %10 = load ptr, ptr %8, align 8, !tbaa !3
  %11 = load ptr, ptr %5, align 8, !tbaa !19
  %12 = load i64, ptr %6, align 8, !tbaa !16
  %13 = call i32 @mbedtls_ctr_drbg_random_with_add(ptr noundef %10, ptr noundef %11, i64 noundef %12, ptr noundef null, i64 noundef 0)
  store i32 %13, ptr %7, align 4, !tbaa !14
  %14 = load i32, ptr %7, align 4, !tbaa !14
  call void @llvm.lifetime.end.p0(i64 8, ptr %8) #10
  call void @llvm.lifetime.end.p0(i64 4, ptr %7) #10
  ret i32 %14
}

; Function Attrs: nounwind uwtable
define hidden i32 @mbedtls_ctr_drbg_write_seed_file(ptr noundef %0, ptr noundef %1) #0 {
  %3 = alloca i32, align 4
  %4 = alloca ptr, align 8
  %5 = alloca ptr, align 8
  %6 = alloca i32, align 4
  %7 = alloca ptr, align 8
  %8 = alloca [256 x i8], align 16
  %9 = alloca i32, align 4
  store ptr %0, ptr %4, align 8, !tbaa !3
  store ptr %1, ptr %5, align 8, !tbaa !19
  call void @llvm.lifetime.start.p0(i64 4, ptr %6) #10
  store i32 -58, ptr %6, align 4, !tbaa !14
  call void @llvm.lifetime.start.p0(i64 8, ptr %7) #10
  call void @llvm.lifetime.start.p0(i64 256, ptr %8) #10
  %10 = load ptr, ptr %5, align 8, !tbaa !19
  %11 = call noalias ptr @fopen(ptr noundef %10, ptr noundef @.str)
  store ptr %11, ptr %7, align 8, !tbaa !31
  %12 = icmp eq ptr %11, null
  br i1 %12, label %13, label %14

13:                                               ; preds = %2
  store i32 -58, ptr %3, align 4
  store i32 1, ptr %9, align 4
  br label %34

14:                                               ; preds = %2
  %15 = load ptr, ptr %7, align 8, !tbaa !31
  call void @setbuf(ptr noundef %15, ptr noundef null) #10
  %16 = load ptr, ptr %4, align 8, !tbaa !3
  %17 = getelementptr inbounds [256 x i8], ptr %8, i64 0, i64 0
  %18 = call i32 @mbedtls_ctr_drbg_random(ptr noundef %16, ptr noundef %17, i64 noundef 256)
  store i32 %18, ptr %6, align 4, !tbaa !14
  %19 = icmp ne i32 %18, 0
  br i1 %19, label %20, label %21

20:                                               ; preds = %14
  br label %29

21:                                               ; preds = %14
  %22 = getelementptr inbounds [256 x i8], ptr %8, i64 0, i64 0
  %23 = load ptr, ptr %7, align 8, !tbaa !31
  %24 = call i64 @fwrite(ptr noundef %22, i64 noundef 1, i64 noundef 256, ptr noundef %23)
  %25 = icmp ne i64 %24, 256
  br i1 %25, label %26, label %27

26:                                               ; preds = %21
  store i32 -58, ptr %6, align 4, !tbaa !14
  br label %28

27:                                               ; preds = %21
  store i32 0, ptr %6, align 4, !tbaa !14
  br label %28

28:                                               ; preds = %27, %26
  br label %29

29:                                               ; preds = %28, %20
  %30 = getelementptr inbounds [256 x i8], ptr %8, i64 0, i64 0
  call void @mbedtls_platform_zeroize(ptr noundef %30, i64 noundef 256)
  %31 = load ptr, ptr %7, align 8, !tbaa !31
  %32 = call i32 @fclose(ptr noundef %31)
  %33 = load i32, ptr %6, align 4, !tbaa !14
  store i32 %33, ptr %3, align 4
  store i32 1, ptr %9, align 4
  br label %34

34:                                               ; preds = %29, %13
  call void @llvm.lifetime.end.p0(i64 256, ptr %8) #10
  call void @llvm.lifetime.end.p0(i64 8, ptr %7) #10
  call void @llvm.lifetime.end.p0(i64 4, ptr %6) #10
  %35 = load i32, ptr %3, align 4
  ret i32 %35
}